; Function Attrs: nounwind uwtable
define noalias nonnull ptr @l_Array_toJson___at_Lake_InputDir_defaultFacetConfig___spec__3(ptr noundef %0) local_unnamed_addr #0 {
  %2 = getelementptr i8, ptr %0, i64 8
  %.val = load i64, ptr %2, align 8, !tbaa !12
  %3 = tail call ptr @l_Array_mapMUnsafe_map___at_Lake_InputDir_defaultFacetConfig___spec__4(i64 noundef %.val, i64 noundef 0, ptr noundef %0)
  tail call void @lean_inc_heartbeat() #5
  %4 = tail call noalias ptr @mi_malloc_small(i64 noundef 16) #5
  %5 = icmp eq ptr %4, null
  br i1 %5, label %6, label %lean_alloc_ctor.exit

6:                                                ; preds = %1
  tail call void @lean_internal_panic_out_of_memory() #6
  unreachable

lean_alloc_ctor.exit:                             ; preds = %1
  %7 = getelementptr inbounds nuw i8, ptr %4, i64 4
  store i32 1, ptr %4, align 4, !tbaa !8
  store i32 67174416, ptr %7, align 4
  %8 = getelementptr inbounds nuw i8, ptr %4, i64 8
  store ptr %3, ptr %8, align 8, !tbaa !4
  ret ptr %4
}